Certificate:
    Data:
        Version: 3 (0x2)
        Serial Number: 39 (0x27)
        Signature Algorithm: ecdsa-with-SHA256
        Issuer: C=PT, ST=Lisbon, L=Lisbon, O=ULHT, OU=DEISI, CN=jqr/emailAddress=jose.rogado@ulusofona.pt
        Validity
            Not Before: Mar 14 20:30:00 2023 GMT
            Not After : Mar 13 20:30:00 2024 GMT
        Subject: C=PT, ST=Lisbon, L=Lisbon, O=ULHT, OU=DEISI, CN=jilson
        Subject Public Key Info:
            Public Key Algorithm: id-ecPublicKey
                Public-Key: (256 bit)
                pub:
                    04:b8:52:a6:9a:ab:d6:c7:fa:6a:b5:77:86:86:27:
                    b7:4f:d9:df:70:cc:1b:9b:e0:fe:55:9b:18:31:a6:
                    74:2d:fa:29:ad:9e:1b:ab:69:9c:df:0e:47:f9:06:
                    d0:d1:14:ff:7e:ab:27:bf:50:70:10:29:77:40:74:
                    39:14:83:49:93
                ASN1 OID: prime256v1
                NIST CURVE: P-256
        X509v3 extensions:
            X509v3 Subject Key Identifier: 
                19:0F:36:8C:26:C4:A4:98:21:0C:63:B6:DE:61:BD:E1:CF:31:14:FA
            X509v3 Basic Constraints: 
                CA:FALSE
            X509v3 Key Usage: 
                Digital Signature, Key Encipherment
            X509v3 Extended Key Usage: 
                TLS Web Server Authentication, TLS Web Client Authentication
            X509v3 Subject Alternative Name: 
                DNS:jilson, DNS:localhost
    Signature Algorithm: ecdsa-with-SHA256
         30:45:02:21:00:b7:7c:9a:41:a6:97:d0:39:54:57:aa:ea:fd:
         dd:fa:52:11:83:42:9a:4d:0c:23:e5:f3:7a:4a:58:80:06:30:
         a5:02:20:7c:5b:45:67:4c:12:4b:e2:13:ef:54:1f:f8:a5:e8:
         ff:21:ea:f9:c8:e4:28:be:94:82:ac:9a:43:97:36:17:a0
-----BEGIN CERTIFICATE-----
MIICSjCCAfCgAwIBAgIBJzAKBggqhkjOPQQDAjCBhTELMAkGA1UEBhMCUFQxDzAN
BgNVBAgMBkxpc2JvbjEPMA0GA1UEBwwGTGlzYm9uMQ0wCwYDVQQKDARVTEhUMQ4w
DAYDVQQLDAVERUlTSTEMMAoGA1UEAwwDanFyMScwJQYJKoZIhvcNAQkBFhhqb3Nl
LnJvZ2Fkb0B1bHVzb2ZvbmEucHQwHhcNMjMwMzE0MjAzMDAwWhcNMjQwMzEzMjAz
MDAwWjBfMQswCQYDVQQGEwJQVDEPMA0GA1UECAwGTGlzYm9uMQ8wDQYDVQQHDAZM
aXNib24xDTALBgNVBAoMBFVMSFQxDjAMBgNVBAsMBURFSVNJMQ8wDQYDVQQDDAZq
aWxzb24wWTATBgcqhkjOPQIBBggqhkjOPQMBBwNCAAS4Uqaaq9bH+mq1d4aGJ7dP
2d9wzBub4P5VmxgxpnQt+imtnhuraZzfDkf5BtDRFP9+qye/UHAQKXdAdDkUg0mT
o3YwdDAdBgNVHQ4EFgQUGQ82jCbEpJghDGO23mG94c8xFPowCQYDVR0TBAIwADAL
BgNVHQ8EBAMCBaAwHQYDVR0lBBYwFAYIKwYBBQUHAwEGCCsGAQUFBwMCMBwGA1Ud
EQQVMBOCBmppbHNvboIJbG9jYWxob3N0MAoGCCqGSM49BAMCA0gAMEUCIQC3fJpB
ppfQOVRXqur93fpSEYNCmk0MI+XzekpYgAYwpQIgfFtFZ0wSS+IT71Qf+KXo/yHq
+cjkKL6UgqyaQ5c2F6A=
-----END CERTIFICATE-----
